; Function Attrs: mustprogress uwtable
define dso_local noalias noundef nonnull ptr @_ZN11SafeOpFlags16make_dummy_flagsEv() local_unnamed_addr #7 align 2 personality ptr @__gxx_personality_v0 {
  %1 = tail call noalias noundef nonnull dereferenceable(8) ptr @_Znwm(i64 noundef 8) #22
  store i8 0, ptr %1, align 4, !tbaa !21
  %2 = getelementptr inbounds nuw i8, ptr %1, i64 1
  store i8 0, ptr %2, align 1, !tbaa !25
  %3 = getelementptr inbounds nuw i8, ptr %1, i64 2
  store i8 0, ptr %3, align 2, !tbaa !26
  %4 = getelementptr inbounds nuw i8, ptr %1, i64 4
  store i32 0, ptr %4, align 4, !tbaa !27
  ret ptr %1
}